target datalayout = "e-m:e-p270:32:32-p271:32:32-p272:64:64-i64:64-i128:128-f80:128-n8:16:32:64-S128"
target triple = "x86_64-pc-linux-gnu"

%struct.UCharIterator = type { ptr, i32, i32, i32, i32, i32, ptr, ptr, ptr, ptr, ptr, ptr, ptr, ptr, ptr, ptr }

; Function Attrs: mustprogress nounwind uwtable
define internal noundef i32 @_ZL22stringIteratorPreviousP13UCharIterator(ptr noundef %0) #3 {
  %2 = alloca i32, align 4
  %3 = alloca ptr, align 8
  store ptr %0, ptr %3, align 8, !tbaa !3
  %4 = load ptr, ptr %3, align 8, !tbaa !3
  %5 = getelementptr inbounds nuw %struct.UCharIterator, ptr %4, i32 0, i32 3
  %6 = load i32, ptr %5, align 8, !tbaa !40
  %7 = load ptr, ptr %3, align 8, !tbaa !3
  %8 = getelementptr inbounds nuw %struct.UCharIterator, ptr %7, i32 0, i32 2
  %9 = load i32, ptr %8, align 4, !tbaa !39
  %10 = icmp sgt i32 %6, %9
  br i1 %10, label %11, label %23

11:                                               ; preds = %1
  %12 = load ptr, ptr %3, align 8, !tbaa !3
  %13 = getelementptr inbounds nuw %struct.UCharIterator, ptr %12, i32 0, i32 0
  %14 = load ptr, ptr %13, align 8, !tbaa !14
  %15 = load ptr, ptr %3, align 8, !tbaa !3
  %16 = getelementptr inbounds nuw %struct.UCharIterator, ptr %15, i32 0, i32 3
  %17 = load i32, ptr %16, align 8, !tbaa !40
  %18 = add nsw i32 %17, -1
  store i32 %18, ptr %16, align 8, !tbaa !40
  %19 = sext i32 %18 to i64
  %20 = getelementptr inbounds i16, ptr %14, i64 %19
  %21 = load i16, ptr %20, align 2, !tbaa !41
  %22 = zext i16 %21 to i32
  store i32 %22, ptr %2, align 4
  br label %24

23:                                               ; preds = %1
  store i32 -1, ptr %2, align 4
  br label %24

24:                                               ; preds = %23, %11
  %25 = load i32, ptr %2, align 4
  ret i32 %25
}